target datalayout = "e-m:e-p270:32:32-p271:32:32-p272:64:64-i64:64-i128:128-f80:128-n8:16:32:64-S128"
target triple = "x86_64-pc-linux-gnu"

%struct.cnfa = type { i32, i32, i32, i32, i32, [2 x i16], [2 x i16], ptr, ptr, ptr, i32, i32 }
%struct.subre = type { i8, i8, i8, i32, i32, i32, i16, i16, ptr, ptr, ptr, ptr, %struct.cnfa, ptr }

; Function Attrs: nounwind uwtable
define internal i64 @nfatree(ptr noundef %0, ptr noundef %1, ptr noundef %2) #0 {
  %4 = alloca ptr, align 8
  %5 = alloca ptr, align 8
  %6 = alloca ptr, align 8
  %7 = alloca ptr, align 8
  store ptr %0, ptr %4, align 8
  store ptr %1, ptr %5, align 8
  store ptr %2, ptr %6, align 8
  call void @llvm.lifetime.start.p0(i64 8, ptr %7) #12
  %8 = load ptr, ptr %5, align 8
  %9 = getelementptr inbounds nuw %struct.subre, ptr %8, i32 0, i32 8
  %10 = load ptr, ptr %9, align 8
  store ptr %10, ptr %7, align 8
  br label %11

11:                                               ; preds = %19, %3
  %12 = load ptr, ptr %7, align 8
  %13 = icmp ne ptr %12, null
  br i1 %13, label %14, label %23

14:                                               ; preds = %11
  %15 = load ptr, ptr %4, align 8
  %16 = load ptr, ptr %7, align 8
  %17 = load ptr, ptr %6, align 8
  %18 = call i64 @nfatree(ptr noundef %15, ptr noundef %16, ptr noundef %17)
  br label %19

19:                                               ; preds = %14
  %20 = load ptr, ptr %7, align 8
  %21 = getelementptr inbounds nuw %struct.subre, ptr %20, i32 0, i32 9
  %22 = load ptr, ptr %21, align 8
  store ptr %22, ptr %7, align 8
  br label %11, !llvm.loop !17

23:                                               ; preds = %11
  %24 = load ptr, ptr %4, align 8
  %25 = load ptr, ptr %5, align 8
  %26 = load ptr, ptr %6, align 8
  %27 = call i64 @nfanode(ptr noundef %24, ptr noundef %25, i32 noundef 0, ptr noundef %26)
  call void @llvm.lifetime.end.p0(i64 8, ptr %7) #12
  ret i64 %27
}