; Function Attrs: nounwind uwtable
define internal fastcc range(i64 0, 4097) i64 @nfatree(ptr noundef nonnull %0, ptr noundef captures(none) %1) unnamed_addr #0 {
  %3 = getelementptr inbounds nuw i8, ptr %1, i64 24
  %.01 = load ptr, ptr %3, align 8
  %.not2 = icmp eq ptr %.01, null
  br i1 %.not2, label %._crit_edge, label %.lr.ph

.lr.ph:                                           ; preds = %2, %.lr.ph
  %.03 = phi ptr [ %.0, %.lr.ph ], [ %.01, %2 ]
  %4 = tail call fastcc i64 @nfatree(ptr noundef %0, ptr noundef nonnull %.03)
  %5 = getelementptr inbounds nuw i8, ptr %.03, i64 32
  %.0 = load ptr, ptr %5, align 8
  %.not = icmp eq ptr %.0, null
  br i1 %.not, label %._crit_edge, label %.lr.ph, !llvm.loop !28

._crit_edge:                                      ; preds = %.lr.ph, %2
  %6 = tail call fastcc i64 @nfanode(ptr noundef %0, ptr noundef %1, i32 noundef 0)
  ret i64 %6
}